; Function Attrs: nounwind uwtable
define internal fastcc i32 @Gia_ManAppendMux(ptr noundef %0, i32 noundef %1, i32 noundef %2, i32 noundef %3) unnamed_addr #0 {
  %5 = xor i32 %1, 1
  %6 = tail call fastcc i32 @Gia_ManAppendAnd(ptr noundef %0, i32 noundef %5, i32 noundef %3)
  %7 = tail call fastcc i32 @Gia_ManAppendAnd(ptr noundef %0, i32 noundef %1, i32 noundef %2)
  %8 = xor i32 %6, 1
  %9 = xor i32 %7, 1
  %10 = tail call fastcc i32 @Gia_ManAppendAnd(ptr noundef %0, i32 noundef %8, i32 noundef %9)
  %11 = xor i32 %10, 1
  ret i32 %11
}